target datalayout = "e-m:e-p270:32:32-p271:32:32-p272:64:64-i64:64-i128:128-f80:128-n8:16:32:64-S128"
target triple = "x86_64-pc-linux-gnu"

%struct.LOCKTAG = type { i32, i32, i32, i16, i8, i8 }

@MyDatabaseId = external global i32, align 4

; Function Attrs: inlinehint nounwind uwtable
define internal void @SetLocktagRelationOid(ptr noundef %0, i32 noundef %1) #2 {
  %3 = alloca ptr, align 8
  %4 = alloca i32, align 4
  %5 = alloca i32, align 4
  store ptr %0, ptr %3, align 8
  store i32 %1, ptr %4, align 4
  call void @llvm.lifetime.start.p0(i64 4, ptr %5) #6
  %6 = load i32, ptr %4, align 4
  %7 = call zeroext i1 @IsSharedRelation(i32 noundef %6)
  br i1 %7, label %8, label %9

8:                                                ; preds = %2
  store i32 0, ptr %5, align 4
  br label %11

9:                                                ; preds = %2
  %10 = load i32, ptr @MyDatabaseId, align 4
  store i32 %10, ptr %5, align 4
  br label %11

11:                                               ; preds = %9, %8
  %12 = load i32, ptr %5, align 4
  %13 = load ptr, ptr %3, align 8
  %14 = getelementptr inbounds nuw %struct.LOCKTAG, ptr %13, i32 0, i32 0
  store i32 %12, ptr %14, align 4
  %15 = load i32, ptr %4, align 4
  %16 = load ptr, ptr %3, align 8
  %17 = getelementptr inbounds nuw %struct.LOCKTAG, ptr %16, i32 0, i32 1
  store i32 %15, ptr %17, align 4
  %18 = load ptr, ptr %3, align 8
  %19 = getelementptr inbounds nuw %struct.LOCKTAG, ptr %18, i32 0, i32 2
  store i32 0, ptr %19, align 4
  %20 = load ptr, ptr %3, align 8
  %21 = getelementptr inbounds nuw %struct.LOCKTAG, ptr %20, i32 0, i32 3
  store i16 0, ptr %21, align 4
  %22 = load ptr, ptr %3, align 8
  %23 = getelementptr inbounds nuw %struct.LOCKTAG, ptr %22, i32 0, i32 4
  store i8 0, ptr %23, align 2
  %24 = load ptr, ptr %3, align 8
  %25 = getelementptr inbounds nuw %struct.LOCKTAG, ptr %24, i32 0, i32 5
  store i8 1, ptr %25, align 1
  call void @llvm.lifetime.end.p0(i64 4, ptr %5) #6
  ret void
}

; Function Attrs: nounwind uwtable
define dso_local zeroext i1 @ConditionalLockRelationOid(i32 noundef %0, i32 noundef %1) #0 {
  %3 = alloca i1, align 1
  %4 = alloca i32, align 4
  %5 = alloca i32, align 4
  %6 = alloca %struct.LOCKTAG, align 4
  %7 = alloca ptr, align 8
  %8 = alloca i32, align 4
  %9 = alloca i32, align 4
  store i32 %0, ptr %4, align 4
  store i32 %1, ptr %5, align 4
  call void @llvm.lifetime.start.p0(i64 16, ptr %6) #6
  call void @llvm.lifetime.start.p0(i64 8, ptr %7) #6
  call void @llvm.lifetime.start.p0(i64 4, ptr %8) #6
  %10 = load i32, ptr %4, align 4
  call void @SetLocktagRelationOid(ptr noundef %6, i32 noundef %10)
  %11 = load i32, ptr %5, align 4
  %12 = call i32 @LockAcquireExtended(ptr noundef %6, i32 noundef %11, i1 noundef zeroext false, i1 noundef zeroext true, i1 noundef zeroext true, ptr noundef %7)
  store i32 %12, ptr %8, align 4
  %13 = load i32, ptr %8, align 4
  %14 = icmp eq i32 %13, 0
  br i1 %14, label %15, label %16

15:                                               ; preds = %2
  store i1 false, ptr %3, align 1
  store i32 1, ptr %9, align 4
  br label %22

16:                                               ; preds = %2
  %17 = load i32, ptr %8, align 4
  %18 = icmp ne i32 %17, 3
  br i1 %18, label %19, label %21

19:                                               ; preds = %16
  call void @AcceptInvalidationMessages()
  %20 = load ptr, ptr %7, align 8
  call void @MarkLockClear(ptr noundef %20)
  br label %21

21:                                               ; preds = %19, %16
  store i1 true, ptr %3, align 1
  store i32 1, ptr %9, align 4
  br label %22

22:                                               ; preds = %21, %15
  call void @llvm.lifetime.end.p0(i64 4, ptr %8) #6
  call void @llvm.lifetime.end.p0(i64 8, ptr %7) #6
  call void @llvm.lifetime.end.p0(i64 16, ptr %6) #6
  %23 = load i1, ptr %3, align 1
  ret i1 %23
}